target datalayout = "e-m:e-p270:32:32-p271:32:32-p272:64:64-i64:64-i128:128-f80:128-n8:16:32:64-S128"
target triple = "x86_64-pc-linux-gnu"

%struct.CK_FUNCTION_LIST = type { %struct.CK_VERSION, ptr, ptr, ptr, ptr, ptr, ptr, ptr, ptr, ptr, ptr, ptr, ptr, ptr, ptr, ptr, ptr, ptr, ptr, ptr, ptr, ptr, ptr, ptr, ptr, ptr, ptr, ptr, ptr, ptr, ptr, ptr, ptr, ptr, ptr, ptr, ptr, ptr, ptr, ptr, ptr, ptr, ptr, ptr, ptr, ptr, ptr, ptr, ptr, ptr, ptr, ptr, ptr, ptr, ptr, ptr, ptr, ptr, ptr, ptr, ptr, ptr, ptr, ptr, ptr, ptr, ptr, ptr, ptr }
%struct.CK_VERSION = type { i8, i8 }
%struct.CK_SLOT_INFO = type { [64 x i8], [32 x i8], i64, %struct.CK_VERSION, %struct.CK_VERSION }

; Function Attrs: nounwind uwtable
define ptr @Java_sun_security_pkcs11_wrapper_PKCS11_C_1GetSlotInfo(ptr noundef %0, ptr noundef %1, i64 noundef %2) #0 {
  %4 = alloca ptr, align 8
  %5 = alloca ptr, align 8
  %6 = alloca ptr, align 8
  %7 = alloca i64, align 8
  %8 = alloca i64, align 8
  %9 = alloca %struct.CK_SLOT_INFO, align 8
  %10 = alloca ptr, align 8
  %11 = alloca i64, align 8
  %12 = alloca ptr, align 8
  store ptr %0, ptr %5, align 8
  store ptr %1, ptr %6, align 8
  store i64 %2, ptr %7, align 8
  store ptr null, ptr %10, align 8
  %13 = load ptr, ptr %5, align 8
  %14 = load ptr, ptr %6, align 8
  %15 = call ptr @getFunctionList(ptr noundef %13, ptr noundef %14)
  store ptr %15, ptr %12, align 8
  %16 = load ptr, ptr %12, align 8
  %17 = icmp eq ptr %16, null
  br i1 %17, label %18, label %19

18:                                               ; preds = %3
  store ptr null, ptr %4, align 8
  br label %35

19:                                               ; preds = %3
  %20 = load i64, ptr %7, align 8
  store i64 %20, ptr %8, align 8
  %21 = load ptr, ptr %12, align 8
  %22 = getelementptr inbounds %struct.CK_FUNCTION_LIST, ptr %21, i32 0, i32 6
  %23 = load ptr, ptr %22, align 8
  %24 = load i64, ptr %8, align 8
  %25 = call i64 %23(i64 noundef %24, ptr noundef %9)
  store i64 %25, ptr %11, align 8
  %26 = load ptr, ptr %5, align 8
  %27 = load i64, ptr %11, align 8
  %28 = call i64 @ckAssertReturnValueOK(ptr noundef %26, i64 noundef %27)
  %29 = icmp eq i64 %28, 0
  br i1 %29, label %30, label %33

30:                                               ; preds = %19
  %31 = load ptr, ptr %5, align 8
  %32 = call ptr @ckSlotInfoPtrToJSlotInfo(ptr noundef %31, ptr noundef %9)
  store ptr %32, ptr %10, align 8
  br label %33

33:                                               ; preds = %30, %19
  %34 = load ptr, ptr %10, align 8
  store ptr %34, ptr %4, align 8
  br label %35

35:                                               ; preds = %33, %18
  %36 = load ptr, ptr %4, align 8
  ret ptr %36
}