; Function Attrs: nounwind uwtable
define ptr @Java_sun_security_pkcs11_wrapper_PKCS11_C_1GetSlotInfo(ptr noundef %0, ptr noundef %1, i64 noundef %2) local_unnamed_addr #1 {
  %4 = alloca %struct.CK_SLOT_INFO, align 8
  %5 = tail call ptr @getFunctionList(ptr noundef %0, ptr noundef %1) #7
  %6 = icmp eq ptr %5, null
  br i1 %6, label %15, label %7

7:                                                ; preds = %3
  %8 = getelementptr inbounds i8, ptr %5, i64 48
  %9 = load ptr, ptr %8, align 8
  %10 = call i64 %9(i64 noundef %2, ptr noundef nonnull %4) #7
  %11 = call i64 @ckAssertReturnValueOK(ptr noundef %0, i64 noundef %10) #7
  %12 = icmp eq i64 %11, 0
  br i1 %12, label %13, label %15

13:                                               ; preds = %7
  %14 = call ptr @ckSlotInfoPtrToJSlotInfo(ptr noundef %0, ptr noundef nonnull %4)
  br label %15

15:                                               ; preds = %7, %13, %3
  %.0 = phi ptr [ null, %3 ], [ %14, %13 ], [ null, %7 ]
  ret ptr %.0
}